; Function Attrs: mustprogress uwtable
define internal fastcc noundef zeroext i1 @_ZL20cmp_atomtype_name_ABP6t_atomP22PreprocessingAtomTypesRKNSt7__cxx1112basic_stringIcSt11char_traitsIcESaIcEEEi(ptr nocapture noundef readonly %0, ptr noundef nonnull %1, ptr noundef nonnull align 8 dereferenceable(32) %2, i32 noundef %3) unnamed_addr #0 personality ptr @__gxx_personality_v0 {
  %5 = alloca %"class.std::optional", align 8
  %6 = alloca %"class.std::optional", align 8
  %7 = alloca %"class.std::optional", align 8
  %8 = getelementptr inbounds i8, ptr %0, i64 16
  %9 = load i16, ptr %8, align 4
  %10 = zext i16 %9 to i32
  call void @_ZNK22PreprocessingAtomTypes20atomNameFromAtomTypeB5cxx11Ei(ptr dead_on_unwind nonnull writable sret(%"class.std::optional") align 8 %5, ptr noundef nonnull align 8 dereferenceable(8) %1, i32 noundef %10)
  %11 = call noundef i64 @_ZNKSt7__cxx1112basic_stringIcSt11char_traitsIcESaIcEE4findEPKcm(ptr noundef nonnull align 8 dereferenceable(32) %5, ptr noundef nonnull @.str.27, i64 noundef 0) #21
  %.not = icmp eq i64 %11, -1
  %12 = getelementptr inbounds i8, ptr %5, i64 32
  %13 = load i8, ptr %12, align 8
  %14 = trunc i8 %13 to i1
  br i1 %14, label %15, label %_ZNSt8optionalIKNSt7__cxx1112basic_stringIcSt11char_traitsIcESaIcEEEED2Ev.exit

15:                                               ; preds = %4
  store i8 0, ptr %12, align 8
  call void @_ZNSt7__cxx1112basic_stringIcSt11char_traitsIcESaIcEED1Ev(ptr noundef nonnull align 8 dereferenceable(32) %5) #21
  br label %_ZNSt8optionalIKNSt7__cxx1112basic_stringIcSt11char_traitsIcESaIcEEEED2Ev.exit

_ZNSt8optionalIKNSt7__cxx1112basic_stringIcSt11char_traitsIcESaIcEEEED2Ev.exit: ; preds = %4, %15
  br i1 %.not, label %33, label %16

16:                                               ; preds = %_ZNSt8optionalIKNSt7__cxx1112basic_stringIcSt11char_traitsIcESaIcEEEED2Ev.exit
  %17 = getelementptr inbounds i8, ptr %0, i64 18
  %18 = load i16, ptr %17, align 2
  %19 = zext i16 %18 to i32
  call void @_ZNK22PreprocessingAtomTypes20atomNameFromAtomTypeB5cxx11Ei(ptr dead_on_unwind nonnull writable sret(%"class.std::optional") align 8 %6, ptr noundef nonnull align 8 dereferenceable(8) %1, i32 noundef %19)
  %20 = getelementptr inbounds i8, ptr %6, i64 32
  %21 = load i8, ptr %20, align 8
  %22 = trunc i8 %21 to i1
  br i1 %22, label %_ZNOSt8optionalIKNSt7__cxx1112basic_stringIcSt11char_traitsIcESaIcEEEE5valueEv.exit, label %23

23:                                               ; preds = %16
  invoke void @_ZSt27__throw_bad_optional_accessv() #19
          to label %.noexc unwind label %29

.noexc:                                           ; preds = %23
  unreachable

_ZNOSt8optionalIKNSt7__cxx1112basic_stringIcSt11char_traitsIcESaIcEEEE5valueEv.exit: ; preds = %16
  %24 = zext nneg i32 %3 to i64
  %25 = invoke noundef zeroext i1 @_ZN3gmx20equalCaseInsensitiveERKNSt7__cxx1112basic_stringIcSt11char_traitsIcESaIcEEES7_m(ptr noundef nonnull align 8 dereferenceable(32) %6, ptr noundef nonnull align 8 dereferenceable(32) %2, i64 noundef %24)
          to label %26 unwind label %29

26:                                               ; preds = %_ZNOSt8optionalIKNSt7__cxx1112basic_stringIcSt11char_traitsIcESaIcEEEE5valueEv.exit
  %27 = load i8, ptr %20, align 8
  %28 = trunc i8 %27 to i1
  br i1 %28, label %_ZNSt8optionalIKNSt7__cxx1112basic_stringIcSt11char_traitsIcESaIcEEEED2Ev.exit15.sink.split, label %_ZNSt8optionalIKNSt7__cxx1112basic_stringIcSt11char_traitsIcESaIcEEEED2Ev.exit15

29:                                               ; preds = %23, %_ZNOSt8optionalIKNSt7__cxx1112basic_stringIcSt11char_traitsIcESaIcEEEE5valueEv.exit
  %30 = landingpad { ptr, i32 }
          cleanup
  %31 = load i8, ptr %20, align 8
  %32 = trunc i8 %31 to i1
  br i1 %32, label %_ZNSt8optionalIKNSt7__cxx1112basic_stringIcSt11char_traitsIcESaIcEEEED2Ev.exit16.sink.split, label %_ZNSt8optionalIKNSt7__cxx1112basic_stringIcSt11char_traitsIcESaIcEEEED2Ev.exit16

33:                                               ; preds = %_ZNSt8optionalIKNSt7__cxx1112basic_stringIcSt11char_traitsIcESaIcEEEED2Ev.exit
  %34 = load i16, ptr %8, align 4
  %35 = zext i16 %34 to i32
  call void @_ZNK22PreprocessingAtomTypes20atomNameFromAtomTypeB5cxx11Ei(ptr dead_on_unwind nonnull writable sret(%"class.std::optional") align 8 %7, ptr noundef nonnull align 8 dereferenceable(8) %1, i32 noundef %35)
  %36 = getelementptr inbounds i8, ptr %7, i64 32
  %37 = load i8, ptr %36, align 8
  %38 = trunc i8 %37 to i1
  br i1 %38, label %_ZNOSt8optionalIKNSt7__cxx1112basic_stringIcSt11char_traitsIcESaIcEEEE5valueEv.exit18, label %39

39:                                               ; preds = %33
  invoke void @_ZSt27__throw_bad_optional_accessv() #19
          to label %.noexc17 unwind label %45

.noexc17:                                         ; preds = %39
  unreachable

_ZNOSt8optionalIKNSt7__cxx1112basic_stringIcSt11char_traitsIcESaIcEEEE5valueEv.exit18: ; preds = %33
  %40 = zext nneg i32 %3 to i64
  %41 = invoke noundef zeroext i1 @_ZN3gmx20equalCaseInsensitiveERKNSt7__cxx1112basic_stringIcSt11char_traitsIcESaIcEEES7_m(ptr noundef nonnull align 8 dereferenceable(32) %7, ptr noundef nonnull align 8 dereferenceable(32) %2, i64 noundef %40)
          to label %42 unwind label %45

42:                                               ; preds = %_ZNOSt8optionalIKNSt7__cxx1112basic_stringIcSt11char_traitsIcESaIcEEEE5valueEv.exit18
  %43 = load i8, ptr %36, align 8
  %44 = trunc i8 %43 to i1
  br i1 %44, label %_ZNSt8optionalIKNSt7__cxx1112basic_stringIcSt11char_traitsIcESaIcEEEED2Ev.exit15.sink.split, label %_ZNSt8optionalIKNSt7__cxx1112basic_stringIcSt11char_traitsIcESaIcEEEED2Ev.exit15

45:                                               ; preds = %39, %_ZNOSt8optionalIKNSt7__cxx1112basic_stringIcSt11char_traitsIcESaIcEEEE5valueEv.exit18
  %46 = landingpad { ptr, i32 }
          cleanup
  %47 = load i8, ptr %36, align 8
  %48 = trunc i8 %47 to i1
  br i1 %48, label %_ZNSt8optionalIKNSt7__cxx1112basic_stringIcSt11char_traitsIcESaIcEEEED2Ev.exit16.sink.split, label %_ZNSt8optionalIKNSt7__cxx1112basic_stringIcSt11char_traitsIcESaIcEEEED2Ev.exit16

_ZNSt8optionalIKNSt7__cxx1112basic_stringIcSt11char_traitsIcESaIcEEEED2Ev.exit15.sink.split: ; preds = %42, %26
  %.sink21 = phi ptr [ %20, %26 ], [ %36, %42 ]
  %.sink = phi ptr [ %6, %26 ], [ %7, %42 ]
  %.013.ph = phi i1 [ %25, %26 ], [ %41, %42 ]
  store i8 0, ptr %.sink21, align 8
  call void @_ZNSt7__cxx1112basic_stringIcSt11char_traitsIcESaIcEED1Ev(ptr noundef nonnull align 8 dereferenceable(32) %.sink) #21
  br label %_ZNSt8optionalIKNSt7__cxx1112basic_stringIcSt11char_traitsIcESaIcEEEED2Ev.exit15

_ZNSt8optionalIKNSt7__cxx1112basic_stringIcSt11char_traitsIcESaIcEEEED2Ev.exit15: ; preds = %_ZNSt8optionalIKNSt7__cxx1112basic_stringIcSt11char_traitsIcESaIcEEEED2Ev.exit15.sink.split, %42, %26
  %.013 = phi i1 [ %25, %26 ], [ %41, %42 ], [ %.013.ph, %_ZNSt8optionalIKNSt7__cxx1112basic_stringIcSt11char_traitsIcESaIcEEEED2Ev.exit15.sink.split ]
  ret i1 %.013

_ZNSt8optionalIKNSt7__cxx1112basic_stringIcSt11char_traitsIcESaIcEEEED2Ev.exit16.sink.split: ; preds = %45, %29
  %.sink23 = phi ptr [ %20, %29 ], [ %36, %45 ]
  %.sink22 = phi ptr [ %6, %29 ], [ %7, %45 ]
  %.pn.ph = phi { ptr, i32 } [ %30, %29 ], [ %46, %45 ]
  store i8 0, ptr %.sink23, align 8
  call void @_ZNSt7__cxx1112basic_stringIcSt11char_traitsIcESaIcEED1Ev(ptr noundef nonnull align 8 dereferenceable(32) %.sink22) #21
  br label %_ZNSt8optionalIKNSt7__cxx1112basic_stringIcSt11char_traitsIcESaIcEEEED2Ev.exit16

_ZNSt8optionalIKNSt7__cxx1112basic_stringIcSt11char_traitsIcESaIcEEEED2Ev.exit16: ; preds = %_ZNSt8optionalIKNSt7__cxx1112basic_stringIcSt11char_traitsIcESaIcEEEED2Ev.exit16.sink.split, %45, %29
  %.pn = phi { ptr, i32 } [ %30, %29 ], [ %46, %45 ], [ %.pn.ph, %_ZNSt8optionalIKNSt7__cxx1112basic_stringIcSt11char_traitsIcESaIcEEEED2Ev.exit16.sink.split ]
  resume { ptr, i32 } %.pn
}